target datalayout = "e-m:e-p270:32:32-p271:32:32-p272:64:64-i64:64-i128:128-f80:128-n8:16:32:64-S128"
target triple = "x86_64-pc-linux-gnu"

%struct.H264Picture = type { ptr, %struct.ThreadFrame, ptr, ptr, ptr, [2 x ptr], [2 x ptr], ptr, ptr, ptr, [2 x ptr], [2 x i32], i32, i32, i32, i32, i32, [2 x [2 x [32 x i32]]], [2 x [2 x i32]], i32, i32, i32, i32, i32, i32, i32, ptr, i32, i32, i32, ptr, i32 }
%struct.ThreadFrame = type { ptr, [2 x ptr], ptr }
%struct.AVFrame = type { [8 x ptr], [8 x i32], ptr, i32, i32, i32, i32, i32, %struct.AVRational, i64, i64, %struct.AVRational, i32, ptr, i32, i32, [8 x ptr], ptr, i32, ptr, i32, i32, i32, i32, i32, i32, i32, i64, ptr, i32, ptr, ptr, i64, i64, i64, i64, ptr, %struct.AVChannelLayout, i64 }
%struct.AVRational = type { i32, i32 }
%struct.AVChannelLayout = type { i32, i32, %union.anon, ptr }
%union.anon = type { i64 }

; Function Attrs: nounwind uwtable
define void @ff_h264_unref_picture(ptr noundef %0) #0 {
  %2 = alloca ptr, align 8
  %3 = alloca i32, align 4
  %4 = alloca i32, align 4
  %5 = alloca i32, align 4
  store ptr %0, ptr %2, align 8, !tbaa !4
  call void @llvm.lifetime.start.p0(i64 4, ptr %3) #7
  store i32 48, ptr %3, align 4, !tbaa !9
  call void @llvm.lifetime.start.p0(i64 4, ptr %4) #7
  %6 = load ptr, ptr %2, align 8, !tbaa !4
  %7 = getelementptr inbounds nuw %struct.H264Picture, ptr %6, i32 0, i32 0
  %8 = load ptr, ptr %7, align 8, !tbaa !11
  %9 = icmp ne ptr %8, null
  br i1 %9, label %10, label %18

10:                                               ; preds = %1
  %11 = load ptr, ptr %2, align 8, !tbaa !4
  %12 = getelementptr inbounds nuw %struct.H264Picture, ptr %11, i32 0, i32 0
  %13 = load ptr, ptr %12, align 8, !tbaa !11
  %14 = getelementptr inbounds nuw %struct.AVFrame, ptr %13, i32 0, i32 16
  %15 = getelementptr inbounds [8 x ptr], ptr %14, i64 0, i64 0
  %16 = load ptr, ptr %15, align 8, !tbaa !19
  %17 = icmp ne ptr %16, null
  br i1 %17, label %19, label %18

18:                                               ; preds = %10, %1
  store i32 1, ptr %5, align 4
  br label %60

19:                                               ; preds = %10
  %20 = load ptr, ptr %2, align 8, !tbaa !4
  %21 = getelementptr inbounds nuw %struct.H264Picture, ptr %20, i32 0, i32 1
  call void @ff_thread_release_ext_buffer(ptr noundef %21)
  %22 = load ptr, ptr %2, align 8, !tbaa !4
  %23 = getelementptr inbounds nuw %struct.H264Picture, ptr %22, i32 0, i32 2
  %24 = load ptr, ptr %23, align 8, !tbaa !21
  call void @av_frame_unref(ptr noundef %24)
  %25 = load ptr, ptr %2, align 8, !tbaa !4
  %26 = getelementptr inbounds nuw %struct.H264Picture, ptr %25, i32 0, i32 9
  call void @av_refstruct_unref(ptr noundef %26)
  %27 = load ptr, ptr %2, align 8, !tbaa !4
  %28 = getelementptr inbounds nuw %struct.H264Picture, ptr %27, i32 0, i32 3
  call void @av_refstruct_unref(ptr noundef %28)
  %29 = load ptr, ptr %2, align 8, !tbaa !4
  %30 = getelementptr inbounds nuw %struct.H264Picture, ptr %29, i32 0, i32 7
  call void @av_refstruct_unref(ptr noundef %30)
  %31 = load ptr, ptr %2, align 8, !tbaa !4
  %32 = getelementptr inbounds nuw %struct.H264Picture, ptr %31, i32 0, i32 26
  call void @av_refstruct_unref(ptr noundef %32)
  store i32 0, ptr %4, align 4, !tbaa !9
  br label %33

33:                                               ; preds = %47, %19
  %34 = load i32, ptr %4, align 4, !tbaa !9
  %35 = icmp slt i32 %34, 2
  br i1 %35, label %36, label %50

36:                                               ; preds = %33
  %37 = load ptr, ptr %2, align 8, !tbaa !4
  %38 = getelementptr inbounds nuw %struct.H264Picture, ptr %37, i32 0, i32 5
  %39 = load i32, ptr %4, align 4, !tbaa !9
  %40 = sext i32 %39 to i64
  %41 = getelementptr inbounds [2 x ptr], ptr %38, i64 0, i64 %40
  call void @av_refstruct_unref(ptr noundef %41)
  %42 = load ptr, ptr %2, align 8, !tbaa !4
  %43 = getelementptr inbounds nuw %struct.H264Picture, ptr %42, i32 0, i32 10
  %44 = load i32, ptr %4, align 4, !tbaa !9
  %45 = sext i32 %44 to i64
  %46 = getelementptr inbounds [2 x ptr], ptr %43, i64 0, i64 %45
  call void @av_refstruct_unref(ptr noundef %46)
  br label %47

47:                                               ; preds = %36
  %48 = load i32, ptr %4, align 4, !tbaa !9
  %49 = add nsw i32 %48, 1
  store i32 %49, ptr %4, align 4, !tbaa !9
  br label %33, !llvm.loop !22

50:                                               ; preds = %33
  %51 = load ptr, ptr %2, align 8, !tbaa !4
  %52 = getelementptr inbounds nuw %struct.H264Picture, ptr %51, i32 0, i32 30
  call void @av_refstruct_unref(ptr noundef %52)
  %53 = load ptr, ptr %2, align 8, !tbaa !4
  %54 = load i32, ptr %3, align 4, !tbaa !9
  %55 = sext i32 %54 to i64
  %56 = getelementptr inbounds i8, ptr %53, i64 %55
  %57 = load i32, ptr %3, align 4, !tbaa !9
  %58 = sext i32 %57 to i64
  %59 = sub i64 760, %58
  call void @llvm.memset.p0.i64(ptr align 1 %56, i8 0, i64 %59, i1 false)
  store i32 0, ptr %5, align 4
  br label %60

60:                                               ; preds = %50, %18
  call void @llvm.lifetime.end.p0(i64 4, ptr %4) #7
  call void @llvm.lifetime.end.p0(i64 4, ptr %3) #7
  %61 = load i32, ptr %5, align 4
  switch i32 %61, label %63 [
    i32 0, label %62
    i32 1, label %62
  ]

62:                                               ; preds = %60, %60
  ret void

63:                                               ; preds = %60
  unreachable
}