; Function Attrs: nounwind uwtable
define void @ff_h264_unref_picture(ptr noundef %0) local_unnamed_addr #0 {
  %2 = load ptr, ptr %0, align 8, !tbaa !4
  %.not = icmp eq ptr %2, null
  br i1 %.not, label %18, label %3

3:                                                ; preds = %1
  %4 = getelementptr inbounds nuw i8, ptr %2, i64 184
  %5 = load ptr, ptr %4, align 8, !tbaa !16
  %.not18 = icmp eq ptr %5, null
  br i1 %.not18, label %18, label %.critedge

.critedge:                                        ; preds = %3
  %6 = getelementptr inbounds nuw i8, ptr %0, i64 8
  tail call void @ff_thread_release_ext_buffer(ptr noundef nonnull %6) #6
  %7 = getelementptr inbounds nuw i8, ptr %0, i64 40
  %8 = load ptr, ptr %7, align 8, !tbaa !18
  tail call void @av_frame_unref(ptr noundef %8) #6
  %9 = getelementptr inbounds nuw i8, ptr %0, i64 112
  tail call void @av_refstruct_unref(ptr noundef nonnull %9) #6
  %10 = getelementptr inbounds nuw i8, ptr %0, i64 48
  tail call void @av_refstruct_unref(ptr noundef nonnull %10) #6
  %11 = getelementptr inbounds nuw i8, ptr %0, i64 96
  tail call void @av_refstruct_unref(ptr noundef nonnull %11) #6
  %12 = getelementptr inbounds nuw i8, ptr %0, i64 720
  tail call void @av_refstruct_unref(ptr noundef nonnull %12) #6
  %13 = getelementptr inbounds nuw i8, ptr %0, i64 64
  %14 = getelementptr inbounds nuw i8, ptr %0, i64 120
  tail call void @av_refstruct_unref(ptr noundef nonnull %13) #6
  tail call void @av_refstruct_unref(ptr noundef nonnull %14) #6
  %15 = getelementptr inbounds nuw i8, ptr %0, i64 72
  tail call void @av_refstruct_unref(ptr noundef nonnull %15) #6
  %16 = getelementptr inbounds nuw i8, ptr %0, i64 128
  tail call void @av_refstruct_unref(ptr noundef nonnull %16) #6
  %17 = getelementptr inbounds nuw i8, ptr %0, i64 744
  tail call void @av_refstruct_unref(ptr noundef nonnull %17) #6
  tail call void @llvm.memset.p0.i64(ptr noundef nonnull align 1 dereferenceable(712) %10, i8 0, i64 712, i1 false)
  br label %18

18:                                               ; preds = %1, %3, %.critedge
  ret void
}